target datalayout = "e-m:e-p270:32:32-p271:32:32-p272:64:64-i64:64-i128:128-f80:128-n8:16:32:64-S128"
target triple = "x86_64-unknown-linux-gnu"

%struct.UString = type { ptr, i32, i32 }
%struct.SRBRoot = type { ptr, ptr, i32, i32, i8, i8, i8, ptr, ptr, i32, i32, i32, i32, i32, %"class.icu_75::UnicodeString", i32, ptr, i32, i32, i32, ptr }
%"class.icu_75::UnicodeString" = type { %"class.icu_75::Replaceable", %"union.icu_75::UnicodeString::StackBufferOrFields" }
%"class.icu_75::Replaceable" = type { %"class.icu_75::UObject" }
%"class.icu_75::UObject" = type { ptr }
%"union.icu_75::UnicodeString::StackBufferOrFields" = type { %struct.anon.0, [32 x i8] }
%struct.anon.0 = type { i16, i32, i32, ptr }
%struct.SResource = type { ptr, i8, i8, i32, i32, i32, i32, i32, ptr, %struct.UString }
%class.ContainerResource = type { %struct.SResource, i32, ptr }
%class.TableResource = type { %class.ContainerResource, i8, ptr }

; Function Attrs: mustprogress nounwind uwtable
define linkonce_odr dso_local noundef signext i8 @_ZNK9SResource7isTableEv(ptr noundef nonnull align 8 dereferenceable(56) %this) #0 comdat align 2 {
entry:
  %this.addr = alloca ptr, align 8
  store ptr %this, ptr %this.addr, align 8
  %this1 = load ptr, ptr %this.addr, align 8
  %fType = getelementptr inbounds %struct.SResource, ptr %this1, i32 0, i32 1
  %0 = load i8, ptr %fType, align 8
  %conv = sext i8 %0 to i32
  %cmp = icmp eq i32 %conv, 2
  %conv2 = zext i1 %cmp to i8
  ret i8 %conv2
}

; Function Attrs: mustprogress uwtable
define internal noundef ptr @_ZN12_GLOBAL__N_19resLookupEP9SResourcePKc(ptr noundef %res, ptr noundef %key) #1 {
entry:
  %retval = alloca ptr, align 8
  %res.addr = alloca ptr, align 8
  %key.addr = alloca ptr, align 8
  %list = alloca ptr, align 8
  %current = alloca ptr, align 8
  store ptr %res, ptr %res.addr, align 8
  store ptr %key, ptr %key.addr, align 8
  %0 = load ptr, ptr %res.addr, align 8
  %call = call ptr @res_none()
  %cmp = icmp eq ptr %0, %call
  br i1 %cmp, label %if.then, label %lor.lhs.false

lor.lhs.false:                                    ; preds = %entry
  %1 = load ptr, ptr %res.addr, align 8
  %call1 = call noundef signext i8 @_ZNK9SResource7isTableEv(ptr noundef nonnull align 8 dereferenceable(56) %1)
  %tobool = icmp ne i8 %call1, 0
  br i1 %tobool, label %if.end, label %if.then

if.then:                                          ; preds = %lor.lhs.false, %entry
  store ptr null, ptr %retval, align 8
  br label %return

if.end:                                           ; preds = %lor.lhs.false
  %2 = load ptr, ptr %res.addr, align 8
  store ptr %2, ptr %list, align 8
  %3 = load ptr, ptr %list, align 8
  %fFirst = getelementptr inbounds %class.ContainerResource, ptr %3, i32 0, i32 2
  %4 = load ptr, ptr %fFirst, align 8
  store ptr %4, ptr %current, align 8
  br label %while.cond

while.cond:                                       ; preds = %if.end6, %if.end
  %5 = load ptr, ptr %current, align 8
  %cmp2 = icmp ne ptr %5, null
  br i1 %cmp2, label %while.body, label %while.end

while.body:                                       ; preds = %while.cond
  %6 = load ptr, ptr %list, align 8
  %fRoot = getelementptr inbounds %class.TableResource, ptr %6, i32 0, i32 2
  %7 = load ptr, ptr %fRoot, align 8
  %fKeys = getelementptr inbounds %struct.SRBRoot, ptr %7, i32 0, i32 7
  %8 = load ptr, ptr %fKeys, align 8
  %9 = load ptr, ptr %current, align 8
  %fKey = getelementptr inbounds %struct.SResource, ptr %9, i32 0, i32 5
  %10 = load i32, ptr %fKey, align 4
  %idx.ext = sext i32 %10 to i64
  %add.ptr = getelementptr inbounds i8, ptr %8, i64 %idx.ext
  %11 = load ptr, ptr %key.addr, align 8
  %call3 = call i32 @strcmp(ptr noundef %add.ptr, ptr noundef %11) #15
  %cmp4 = icmp eq i32 %call3, 0
  br i1 %cmp4, label %if.then5, label %if.end6

if.then5:                                         ; preds = %while.body
  %12 = load ptr, ptr %current, align 8
  store ptr %12, ptr %retval, align 8
  br label %return

if.end6:                                          ; preds = %while.body
  %13 = load ptr, ptr %current, align 8
  %fNext = getelementptr inbounds %struct.SResource, ptr %13, i32 0, i32 8
  %14 = load ptr, ptr %fNext, align 8
  store ptr %14, ptr %current, align 8
  br label %while.cond, !llvm.loop !22

while.end:                                        ; preds = %while.cond
  store ptr null, ptr %retval, align 8
  br label %return

return:                                           ; preds = %while.end, %if.then5, %if.then
  %15 = load ptr, ptr %retval, align 8
  ret ptr %15
}