; Function Attrs: mustprogress uwtable
define internal fastcc noundef ptr @_ZN12_GLOBAL__N_19resLookupEP9SResourcePKc(ptr noundef readonly %res, ptr nocapture noundef readonly %key) unnamed_addr #1 {
entry:
  %call = tail call ptr @res_none()
  %cmp = icmp eq ptr %call, %res
  br i1 %cmp, label %return, label %lor.lhs.false

lor.lhs.false:                                    ; preds = %entry
  %fType.i = getelementptr inbounds i8, ptr %res, i64 8
  %0 = load i8, ptr %fType.i, align 8
  %cmp.i.not = icmp eq i8 %0, 2
  br i1 %cmp.i.not, label %if.end, label %return

if.end:                                           ; preds = %lor.lhs.false
  %fFirst = getelementptr inbounds i8, ptr %res, i64 64
  %current.07 = load ptr, ptr %fFirst, align 8
  %cmp2.not8 = icmp eq ptr %current.07, null
  br i1 %cmp2.not8, label %return, label %while.body.lr.ph

while.body.lr.ph:                                 ; preds = %if.end
  %fRoot = getelementptr inbounds i8, ptr %res, i64 80
  %1 = load ptr, ptr %fRoot, align 8
  %fKeys = getelementptr inbounds i8, ptr %1, i64 32
  %2 = load ptr, ptr %fKeys, align 8
  br label %while.body

while.body:                                       ; preds = %while.body.lr.ph, %if.end6
  %current.09 = phi ptr [ %current.07, %while.body.lr.ph ], [ %current.0, %if.end6 ]
  %fKey = getelementptr inbounds i8, ptr %current.09, i64 20
  %3 = load i32, ptr %fKey, align 4
  %idx.ext = sext i32 %3 to i64
  %add.ptr = getelementptr inbounds i8, ptr %2, i64 %idx.ext
  %call3 = tail call i32 @strcmp(ptr noundef nonnull dereferenceable(1) %add.ptr, ptr noundef nonnull dereferenceable(1) %key) #22
  %cmp4 = icmp eq i32 %call3, 0
  br i1 %cmp4, label %return, label %if.end6

if.end6:                                          ; preds = %while.body
  %fNext = getelementptr inbounds i8, ptr %current.09, i64 32
  %current.0 = load ptr, ptr %fNext, align 8
  %cmp2.not = icmp eq ptr %current.0, null
  br i1 %cmp2.not, label %return, label %while.body, !llvm.loop !26

return:                                           ; preds = %while.body, %if.end6, %if.end, %entry, %lor.lhs.false
  %retval.0 = phi ptr [ null, %lor.lhs.false ], [ null, %entry ], [ null, %if.end ], [ %current.09, %while.body ], [ null, %if.end6 ]
  ret ptr %retval.0
}